target datalayout = "e-m:e-p270:32:32-p271:32:32-p272:64:64-i64:64-i128:128-f80:128-n8:16:32:64-S128"
target triple = "x86_64-pc-linux-gnu"

%"class.zxing::qrcode::Detector" = type <{ %"class.zxing::Counted.base", [4 x i8], %"class.zxing::Ref", %"class.zxing::Ref.0", %"class.std::vector", i32, [4 x i8] }>
%"class.zxing::Counted.base" = type <{ ptr, i32 }>
%"class.zxing::Ref" = type { ptr }
%"class.zxing::Ref.0" = type { ptr }
%"class.std::vector" = type { %"struct.std::_Vector_base" }
%"struct.std::_Vector_base" = type { %"struct.std::_Vector_base<zxing::Ref<zxing::qrcode::PatternResult>, std::allocator<zxing::Ref<zxing::qrcode::PatternResult>>>::_Vector_impl" }
%"struct.std::_Vector_base<zxing::Ref<zxing::qrcode::PatternResult>, std::allocator<zxing::Ref<zxing::qrcode::PatternResult>>>::_Vector_impl" = type { %"struct.std::_Vector_base<zxing::Ref<zxing::qrcode::PatternResult>, std::allocator<zxing::Ref<zxing::qrcode::PatternResult>>>::_Vector_impl_data" }
%"struct.std::_Vector_base<zxing::Ref<zxing::qrcode::PatternResult>, std::allocator<zxing::Ref<zxing::qrcode::PatternResult>>>::_Vector_impl_data" = type { ptr, ptr, ptr }

; Function Attrs: mustprogress nounwind uwtable
define linkonce_odr hidden noundef ptr @_ZNK5zxing3RefINS_9BitMatrixEEptEv(ptr noundef nonnull align 8 dereferenceable(8) %0) #1 comdat align 2 {
  %2 = alloca ptr, align 8
  store ptr %0, ptr %2, align 8, !tbaa !8
  %3 = load ptr, ptr %2, align 8
  %4 = getelementptr inbounds nuw %"class.zxing::Ref", ptr %3, i32 0, i32 0
  %5 = load ptr, ptr %4, align 8, !tbaa !31
  ret ptr %5
}

; Function Attrs: mustprogress uwtable
define hidden noundef float @_ZN5zxing6qrcode8Detector32sizeOfBlackWhiteBlackRunBothWaysEiiiiib(ptr noundef nonnull align 8 dereferenceable(60) %0, i32 noundef %1, i32 noundef %2, i32 noundef %3, i32 noundef %4, i32 noundef %5, i1 noundef zeroext %6) #0 align 2 {
  %8 = alloca ptr, align 8
  %9 = alloca i32, align 4
  %10 = alloca i32, align 4
  %11 = alloca i32, align 4
  %12 = alloca i32, align 4
  %13 = alloca i32, align 4
  %14 = alloca i8, align 1
  %15 = alloca float, align 4
  %16 = alloca float, align 4
  %17 = alloca float, align 4
  %18 = alloca i32, align 4
  %19 = alloca i32, align 4
  %20 = alloca float, align 4
  store ptr %0, ptr %8, align 8, !tbaa !3
  store i32 %1, ptr %9, align 4, !tbaa !75
  store i32 %2, ptr %10, align 4, !tbaa !75
  store i32 %3, ptr %11, align 4, !tbaa !75
  store i32 %4, ptr %12, align 4, !tbaa !75
  store i32 %5, ptr %13, align 4, !tbaa !75
  %21 = zext i1 %6 to i8
  store i8 %21, ptr %14, align 1, !tbaa !85
  %22 = load ptr, ptr %8, align 8
  call void @llvm.lifetime.start.p0(i64 4, ptr %15) #16
  %23 = load i32, ptr %9, align 4, !tbaa !75
  %24 = load i32, ptr %10, align 4, !tbaa !75
  %25 = load i32, ptr %11, align 4, !tbaa !75
  %26 = load i32, ptr %12, align 4, !tbaa !75
  %27 = call noundef float @_ZN5zxing6qrcode8Detector24sizeOfBlackWhiteBlackRunEiiii(ptr noundef nonnull align 8 dereferenceable(60) %22, i32 noundef %23, i32 noundef %24, i32 noundef %25, i32 noundef %26)
  store float %27, ptr %15, align 4, !tbaa !80
  call void @llvm.lifetime.start.p0(i64 4, ptr %16) #16
  store float 0.000000e+00, ptr %16, align 4, !tbaa !80
  call void @llvm.lifetime.start.p0(i64 4, ptr %17) #16
  store float 1.000000e+00, ptr %17, align 4, !tbaa !80
  call void @llvm.lifetime.start.p0(i64 4, ptr %18) #16
  %28 = load i32, ptr %9, align 4, !tbaa !75
  %29 = load i32, ptr %11, align 4, !tbaa !75
  %30 = load i32, ptr %9, align 4, !tbaa !75
  %31 = sub nsw i32 %29, %30
  %32 = sub nsw i32 %28, %31
  store i32 %32, ptr %18, align 4, !tbaa !75
  %33 = load i32, ptr %18, align 4, !tbaa !75
  %34 = icmp slt i32 %33, 0
  br i1 %34, label %35, label %43

35:                                               ; preds = %7
  %36 = load i32, ptr %9, align 4, !tbaa !75
  %37 = sitofp i32 %36 to float
  %38 = load i32, ptr %9, align 4, !tbaa !75
  %39 = load i32, ptr %18, align 4, !tbaa !75
  %40 = sub nsw i32 %38, %39
  %41 = sitofp i32 %40 to float
  %42 = fdiv float %37, %41
  store float %42, ptr %17, align 4, !tbaa !80
  store i32 0, ptr %18, align 4, !tbaa !75
  br label %67

43:                                               ; preds = %7
  %44 = load i32, ptr %18, align 4, !tbaa !75
  %45 = getelementptr inbounds nuw %"class.zxing::qrcode::Detector", ptr %22, i32 0, i32 2
  %46 = call noundef ptr @_ZNK5zxing3RefINS_9BitMatrixEEptEv(ptr noundef nonnull align 8 dereferenceable(8) %45)
  %47 = call noundef i32 @_ZNK5zxing9BitMatrix8getWidthEv(ptr noundef nonnull align 8 dereferenceable(346) %46)
  %48 = icmp sge i32 %44, %47
  br i1 %48, label %49, label %66

49:                                               ; preds = %43
  %50 = getelementptr inbounds nuw %"class.zxing::qrcode::Detector", ptr %22, i32 0, i32 2
  %51 = call noundef ptr @_ZNK5zxing3RefINS_9BitMatrixEEptEv(ptr noundef nonnull align 8 dereferenceable(8) %50)
  %52 = call noundef i32 @_ZNK5zxing9BitMatrix8getWidthEv(ptr noundef nonnull align 8 dereferenceable(346) %51)
  %53 = sub nsw i32 %52, 1
  %54 = load i32, ptr %9, align 4, !tbaa !75
  %55 = sub nsw i32 %53, %54
  %56 = sitofp i32 %55 to float
  %57 = load i32, ptr %18, align 4, !tbaa !75
  %58 = load i32, ptr %9, align 4, !tbaa !75
  %59 = sub nsw i32 %57, %58
  %60 = sitofp i32 %59 to float
  %61 = fdiv float %56, %60
  store float %61, ptr %17, align 4, !tbaa !80
  %62 = getelementptr inbounds nuw %"class.zxing::qrcode::Detector", ptr %22, i32 0, i32 2
  %63 = call noundef ptr @_ZNK5zxing3RefINS_9BitMatrixEEptEv(ptr noundef nonnull align 8 dereferenceable(8) %62)
  %64 = call noundef i32 @_ZNK5zxing9BitMatrix8getWidthEv(ptr noundef nonnull align 8 dereferenceable(346) %63)
  %65 = sub nsw i32 %64, 1
  store i32 %65, ptr %18, align 4, !tbaa !75
  br label %66

66:                                               ; preds = %49, %43
  br label %67

67:                                               ; preds = %66, %35
  call void @llvm.lifetime.start.p0(i64 4, ptr %19) #16
  %68 = load i32, ptr %10, align 4, !tbaa !75
  %69 = sitofp i32 %68 to float
  %70 = load i32, ptr %12, align 4, !tbaa !75
  %71 = load i32, ptr %10, align 4, !tbaa !75
  %72 = sub nsw i32 %70, %71
  %73 = sitofp i32 %72 to float
  %74 = load float, ptr %17, align 4, !tbaa !80
  %75 = fneg float %73
  %76 = call float @llvm.fmuladd.f32(float %75, float %74, float %69)
  %77 = fptosi float %76 to i32
  store i32 %77, ptr %19, align 4, !tbaa !75
  store float 1.000000e+00, ptr %17, align 4, !tbaa !80
  %78 = load i32, ptr %19, align 4, !tbaa !75
  %79 = icmp slt i32 %78, 0
  br i1 %79, label %80, label %88

80:                                               ; preds = %67
  %81 = load i32, ptr %10, align 4, !tbaa !75
  %82 = sitofp i32 %81 to float
  %83 = load i32, ptr %10, align 4, !tbaa !75
  %84 = load i32, ptr %19, align 4, !tbaa !75
  %85 = sub nsw i32 %83, %84
  %86 = sitofp i32 %85 to float
  %87 = fdiv float %82, %86
  store float %87, ptr %17, align 4, !tbaa !80
  store i32 0, ptr %19, align 4, !tbaa !75
  br label %112

88:                                               ; preds = %67
  %89 = load i32, ptr %19, align 4, !tbaa !75
  %90 = getelementptr inbounds nuw %"class.zxing::qrcode::Detector", ptr %22, i32 0, i32 2
  %91 = call noundef ptr @_ZNK5zxing3RefINS_9BitMatrixEEptEv(ptr noundef nonnull align 8 dereferenceable(8) %90)
  %92 = call noundef i32 @_ZNK5zxing9BitMatrix9getHeightEv(ptr noundef nonnull align 8 dereferenceable(346) %91)
  %93 = icmp sge i32 %89, %92
  br i1 %93, label %94, label %111

94:                                               ; preds = %88
  %95 = getelementptr inbounds nuw %"class.zxing::qrcode::Detector", ptr %22, i32 0, i32 2
  %96 = call noundef ptr @_ZNK5zxing3RefINS_9BitMatrixEEptEv(ptr noundef nonnull align 8 dereferenceable(8) %95)
  %97 = call noundef i32 @_ZNK5zxing9BitMatrix9getHeightEv(ptr noundef nonnull align 8 dereferenceable(346) %96)
  %98 = sub nsw i32 %97, 1
  %99 = load i32, ptr %10, align 4, !tbaa !75
  %100 = sub nsw i32 %98, %99
  %101 = sitofp i32 %100 to float
  %102 = load i32, ptr %19, align 4, !tbaa !75
  %103 = load i32, ptr %10, align 4, !tbaa !75
  %104 = sub nsw i32 %102, %103
  %105 = sitofp i32 %104 to float
  %106 = fdiv float %101, %105
  store float %106, ptr %17, align 4, !tbaa !80
  %107 = getelementptr inbounds nuw %"class.zxing::qrcode::Detector", ptr %22, i32 0, i32 2
  %108 = call noundef ptr @_ZNK5zxing3RefINS_9BitMatrixEEptEv(ptr noundef nonnull align 8 dereferenceable(8) %107)
  %109 = call noundef i32 @_ZNK5zxing9BitMatrix9getHeightEv(ptr noundef nonnull align 8 dereferenceable(346) %108)
  %110 = sub nsw i32 %109, 1
  store i32 %110, ptr %19, align 4, !tbaa !75
  br label %111

111:                                              ; preds = %94, %88
  br label %112

112:                                              ; preds = %111, %80
  %113 = load i32, ptr %9, align 4, !tbaa !75
  %114 = sitofp i32 %113 to float
  %115 = load i32, ptr %18, align 4, !tbaa !75
  %116 = load i32, ptr %9, align 4, !tbaa !75
  %117 = sub nsw i32 %115, %116
  %118 = sitofp i32 %117 to float
  %119 = load float, ptr %17, align 4, !tbaa !80
  %120 = call float @llvm.fmuladd.f32(float %118, float %119, float %114)
  %121 = fptosi float %120 to i32
  store i32 %121, ptr %18, align 4, !tbaa !75
  call void @llvm.lifetime.start.p0(i64 4, ptr %20) #16
  %122 = load i32, ptr %9, align 4, !tbaa !75
  %123 = load i32, ptr %10, align 4, !tbaa !75
  %124 = load i32, ptr %18, align 4, !tbaa !75
  %125 = load i32, ptr %19, align 4, !tbaa !75
  %126 = call noundef float @_ZN5zxing6qrcode8Detector24sizeOfBlackWhiteBlackRunEiiii(ptr noundef nonnull align 8 dereferenceable(60) %22, i32 noundef %122, i32 noundef %123, i32 noundef %124, i32 noundef %125)
  store float %126, ptr %20, align 4, !tbaa !80
  %127 = load i32, ptr %13, align 4, !tbaa !75
  %128 = icmp eq i32 %127, 1
  br i1 %128, label %132, label %129

129:                                              ; preds = %112
  %130 = load i32, ptr %13, align 4, !tbaa !75
  %131 = icmp eq i32 %130, 4
  br i1 %131, label %132, label %142

132:                                              ; preds = %129, %112
  %133 = load i8, ptr %14, align 1, !tbaa !85, !range !87, !noundef !88
  %134 = trunc i8 %133 to i1
  br i1 %134, label %138, label %135

135:                                              ; preds = %132
  %136 = load float, ptr %15, align 4, !tbaa !80
  %137 = fmul float %136, 2.000000e+00
  store float %137, ptr %16, align 4, !tbaa !80
  br label %141

138:                                              ; preds = %132
  %139 = load float, ptr %20, align 4, !tbaa !80
  %140 = fmul float %139, 2.000000e+00
  store float %140, ptr %16, align 4, !tbaa !80
  br label %141

141:                                              ; preds = %138, %135
  br label %163

142:                                              ; preds = %129
  %143 = load i32, ptr %13, align 4, !tbaa !75
  %144 = icmp eq i32 %143, 2
  br i1 %144, label %148, label %145

145:                                              ; preds = %142
  %146 = load i32, ptr %13, align 4, !tbaa !75
  %147 = icmp eq i32 %146, 5
  br i1 %147, label %148, label %158

148:                                              ; preds = %145, %142
  %149 = load i8, ptr %14, align 1, !tbaa !85, !range !87, !noundef !88
  %150 = trunc i8 %149 to i1
  br i1 %150, label %154, label %151

151:                                              ; preds = %148
  %152 = load float, ptr %20, align 4, !tbaa !80
  %153 = fmul float %152, 2.000000e+00
  store float %153, ptr %16, align 4, !tbaa !80
  br label %157

154:                                              ; preds = %148
  %155 = load float, ptr %15, align 4, !tbaa !80
  %156 = fmul float %155, 2.000000e+00
  store float %156, ptr %16, align 4, !tbaa !80
  br label %157

157:                                              ; preds = %154, %151
  br label %162

158:                                              ; preds = %145
  %159 = load float, ptr %15, align 4, !tbaa !80
  %160 = load float, ptr %20, align 4, !tbaa !80
  %161 = fadd float %159, %160
  store float %161, ptr %16, align 4, !tbaa !80
  br label %162

162:                                              ; preds = %158, %157
  br label %163

163:                                              ; preds = %162, %141
  %164 = load float, ptr %16, align 4, !tbaa !80
  %165 = fsub float %164, 1.000000e+00
  call void @llvm.lifetime.end.p0(i64 4, ptr %20) #16
  call void @llvm.lifetime.end.p0(i64 4, ptr %19) #16
  call void @llvm.lifetime.end.p0(i64 4, ptr %18) #16
  call void @llvm.lifetime.end.p0(i64 4, ptr %17) #16
  call void @llvm.lifetime.end.p0(i64 4, ptr %16) #16
  call void @llvm.lifetime.end.p0(i64 4, ptr %15) #16
  ret float %165
}