; Function Attrs: mustprogress uwtable
define hidden noundef float @_ZN5zxing6qrcode8Detector32sizeOfBlackWhiteBlackRunBothWaysEiiiiib(ptr noundef nonnull readonly align 8 captures(none) dereferenceable(60) %0, i32 noundef %1, i32 noundef %2, i32 noundef %3, i32 noundef %4, i32 noundef %5, i1 noundef zeroext %6) local_unnamed_addr #1 align 2 {
  %8 = tail call noundef float @_ZN5zxing6qrcode8Detector24sizeOfBlackWhiteBlackRunEiiii(ptr noundef nonnull align 8 dereferenceable(60) %0, i32 noundef %1, i32 noundef %2, i32 noundef %3, i32 noundef %4)
  %9 = sub nsw i32 %3, %1
  %10 = sub nsw i32 %1, %9
  %11 = icmp slt i32 %10, 0
  br i1 %11, label %12, label %16

12:                                               ; preds = %7
  %13 = sitofp i32 %1 to float
  %14 = sitofp i32 %9 to float
  %15 = fdiv float %13, %14
  br label %32

16:                                               ; preds = %7
  %17 = getelementptr inbounds nuw i8, ptr %0, i64 16
  %18 = load ptr, ptr %17, align 8, !tbaa !10
  %19 = tail call noundef i32 @_ZNK5zxing9BitMatrix8getWidthEv(ptr noundef nonnull align 8 dereferenceable(346) %18)
  %.not = icmp slt i32 %10, %19
  br i1 %.not, label %32, label %20

20:                                               ; preds = %16
  %21 = load ptr, ptr %17, align 8, !tbaa !10
  %22 = tail call noundef i32 @_ZNK5zxing9BitMatrix8getWidthEv(ptr noundef nonnull align 8 dereferenceable(346) %21)
  %23 = xor i32 %1, -1
  %24 = add i32 %22, %23
  %25 = sitofp i32 %24 to float
  %26 = sub i32 0, %9
  %27 = sitofp i32 %26 to float
  %28 = fdiv float %25, %27
  %29 = load ptr, ptr %17, align 8, !tbaa !10
  %30 = tail call noundef i32 @_ZNK5zxing9BitMatrix8getWidthEv(ptr noundef nonnull align 8 dereferenceable(346) %29)
  %31 = add nsw i32 %30, -1
  br label %32

32:                                               ; preds = %16, %20, %12
  %.053 = phi float [ %15, %12 ], [ %28, %20 ], [ 1.000000e+00, %16 ]
  %.052 = phi i32 [ 0, %12 ], [ %31, %20 ], [ %10, %16 ]
  %33 = sitofp i32 %2 to float
  %34 = sub nsw i32 %4, %2
  %35 = sitofp i32 %34 to float
  %36 = fneg float %35
  %37 = tail call float @llvm.fmuladd.f32(float %36, float %.053, float %33)
  %38 = fptosi float %37 to i32
  %39 = icmp slt i32 %38, 0
  br i1 %39, label %40, label %44

40:                                               ; preds = %32
  %41 = sub nsw i32 %2, %38
  %42 = sitofp i32 %41 to float
  %43 = fdiv float %33, %42
  br label %60

44:                                               ; preds = %32
  %45 = getelementptr inbounds nuw i8, ptr %0, i64 16
  %46 = load ptr, ptr %45, align 8, !tbaa !10
  %47 = tail call noundef i32 @_ZNK5zxing9BitMatrix9getHeightEv(ptr noundef nonnull align 8 dereferenceable(346) %46)
  %.not58 = icmp sgt i32 %47, %38
  br i1 %.not58, label %60, label %48

48:                                               ; preds = %44
  %49 = load ptr, ptr %45, align 8, !tbaa !10
  %50 = tail call noundef i32 @_ZNK5zxing9BitMatrix9getHeightEv(ptr noundef nonnull align 8 dereferenceable(346) %49)
  %51 = xor i32 %2, -1
  %52 = add i32 %50, %51
  %53 = sitofp i32 %52 to float
  %54 = sub nsw i32 %38, %2
  %55 = sitofp i32 %54 to float
  %56 = fdiv float %53, %55
  %57 = load ptr, ptr %45, align 8, !tbaa !10
  %58 = tail call noundef i32 @_ZNK5zxing9BitMatrix9getHeightEv(ptr noundef nonnull align 8 dereferenceable(346) %57)
  %59 = add nsw i32 %58, -1
  br label %60

60:                                               ; preds = %44, %48, %40
  %.1 = phi float [ %43, %40 ], [ %56, %48 ], [ 1.000000e+00, %44 ]
  %.051 = phi i32 [ 0, %40 ], [ %59, %48 ], [ %38, %44 ]
  %61 = sitofp i32 %1 to float
  %62 = sub nsw i32 %.052, %1
  %63 = sitofp i32 %62 to float
  %64 = tail call float @llvm.fmuladd.f32(float %63, float %.1, float %61)
  %65 = fptosi float %64 to i32
  %66 = tail call noundef float @_ZN5zxing6qrcode8Detector24sizeOfBlackWhiteBlackRunEiiii(ptr noundef nonnull align 8 dereferenceable(60) %0, i32 noundef %1, i32 noundef %2, i32 noundef %65, i32 noundef %.051)
  switch i32 %5, label %77 [
    i32 4, label %67
    i32 1, label %67
    i32 5, label %72
    i32 2, label %72
  ]

67:                                               ; preds = %60, %60
  br i1 %6, label %70, label %68

68:                                               ; preds = %67
  %69 = fmul float %8, 2.000000e+00
  br label %79

70:                                               ; preds = %67
  %71 = fmul float %66, 2.000000e+00
  br label %79

72:                                               ; preds = %60, %60
  br i1 %6, label %75, label %73

73:                                               ; preds = %72
  %74 = fmul float %66, 2.000000e+00
  br label %79

75:                                               ; preds = %72
  %76 = fmul float %8, 2.000000e+00
  br label %79

77:                                               ; preds = %60
  %78 = fadd float %8, %66
  br label %79

79:                                               ; preds = %77, %75, %73, %68, %70
  %.0 = phi float [ %71, %70 ], [ %69, %68 ], [ %76, %75 ], [ %74, %73 ], [ %78, %77 ]
  %80 = fadd float %.0, -1.000000e+00
  ret float %80
}